target datalayout = "e-m:e-p270:32:32-p271:32:32-p272:64:64-i64:64-i128:128-f80:128-n8:16:32:64-S128"
target triple = "x86_64-pc-linux-gnu"

%struct.ssl_st = type { i32, ptr, ptr, ptr, %struct.CRYPTO_REF_COUNT, ptr, %struct.crypto_ex_data_st }
%struct.CRYPTO_REF_COUNT = type { i32 }
%struct.crypto_ex_data_st = type { ptr, ptr }
%struct.ssl_connection_st = type { %struct.ssl_st, ptr, i32, ptr, ptr, ptr, i32, ptr, i32, i32, i32, i32, %struct.OSSL_TIME, %struct.OSSL_TIME, %struct.ossl_statem_st, i32, ptr, ptr, i64, i64, i64, %struct.ossl_quic_tls_callbacks_st, ptr, ptr, %struct.anon, ptr, ptr, ptr, i32, ptr, %struct.ssl_dane_st, ptr, ptr, ptr, ptr, i32, [64 x i8], [64 x i8], [64 x i8], [64 x i8], [64 x i8], [64 x i8], [64 x i8], [64 x i8], [64 x i8], [64 x i8], [64 x i8], [64 x i8], ptr, [64 x i8], i64, i32, i64, [32 x i8], ptr, ptr, ptr, i64, ptr, [32 x i8], i64, i32, ptr, ptr, i32, i32, ptr, ptr, ptr, ptr, ptr, i64, ptr, ptr, i64, i32, i32, i32, i64, i32, i32, i64, i64, i64, %struct.anon.1, ptr, i32, ptr, ptr, ptr, i32, ptr, ptr, ptr, i32, i32, i32, i32, ptr, i64, i32, ptr, %struct.srp_ctx_st, ptr, %struct.record_layer_st, ptr, ptr, ptr, ptr, i64, i32, i32, i32, i64, i64, i64, ptr, ptr, ptr, ptr, ptr, i64, ptr, i64, ptr, i64 }
%struct.OSSL_TIME = type { i64 }
%struct.ossl_statem_st = type { i32, i32, i32, i32, i32, i32, i32, i32, i32, i32, i32, i32, i32, ptr, ptr, ptr, i8 }
%struct.ossl_quic_tls_callbacks_st = type { ptr, ptr, ptr, ptr, ptr, ptr }
%struct.anon = type { i64, [32 x i8], [32 x i8], ptr, ptr, i32, i32, i32, i32, [2 x i8], i32, i32, i32, i32, %struct.anon.0, [64 x i8], i64, [64 x i8], i64, i32, i32, ptr, i64, ptr, i64, i32, i8, i8, i16, ptr, i16 }
%struct.anon.0 = type { [128 x i8], i64, [128 x i8], i64, i64, i32, ptr, ptr, [4 x ptr], [4 x i16], i64, i32, ptr, i64, ptr, i64, ptr, ptr, ptr, i32, i64, ptr, i32, ptr, i64, ptr, i64, ptr, i64, ptr, ptr, ptr, ptr, i64, i64, ptr, ptr, i32, i32, i32, i32 }
%struct.ssl_dane_st = type { ptr, ptr, ptr, ptr, ptr, i32, i32, i32, i64 }
%struct.anon.1 = type { [29 x i8], ptr, ptr, ptr, i32, ptr, i16, i32, %struct.anon.2, i32, i32, i64, ptr, i64, ptr, i64, ptr, i64, ptr, i64, ptr, i64, ptr, ptr, ptr, ptr, ptr, ptr, ptr, i64, ptr, i64, i32, i32, i32, i32, ptr, i64, i32, i8, i32, [4 x i32], i32, i8, i8, i8, i8 }
%struct.anon.2 = type { ptr, ptr, ptr, i64 }
%struct.srp_ctx_st = type { ptr, ptr, ptr, ptr, ptr, ptr, ptr, ptr, ptr, ptr, ptr, ptr, ptr, ptr, i32, i64 }
%struct.record_layer_st = type { ptr, ptr, ptr, ptr, ptr, ptr, ptr, ptr, i64, i32, i64, [4 x i8], i64, i64, i8, ptr, i32, ptr, ptr, ptr, i64, i64, i64, i64, [32 x %struct.tls_record_st] }
%struct.tls_record_st = type { ptr, i32, i8, ptr, ptr, i64, i64, i16, [8 x i8] }

@.str = private unnamed_addr constant [35 x i8] c"../openssl/ssl/statem/statem_lib.c\00", align 1
@__func__.construct_ca_names = private unnamed_addr constant [19 x i8] c"construct_ca_names\00", align 1

; Function Attrs: inlinehint nounwind uwtable
define internal ptr @ossl_check_const_X509_NAME_sk_type(ptr noundef %0) #5 {
  %2 = alloca ptr, align 8
  store ptr %0, ptr %2, align 8, !tbaa !281
  %3 = load ptr, ptr %2, align 8, !tbaa !281
  ret ptr %3
}

; Function Attrs: nounwind uwtable
define i32 @construct_ca_names(ptr noundef %0, ptr noundef %1, ptr noundef %2) #0 {
  %4 = alloca i32, align 4
  %5 = alloca ptr, align 8
  %6 = alloca ptr, align 8
  %7 = alloca ptr, align 8
  %8 = alloca i32, align 4
  %9 = alloca ptr, align 8
  %10 = alloca ptr, align 8
  %11 = alloca i32, align 4
  %12 = alloca i32, align 4
  store ptr %0, ptr %5, align 8, !tbaa !18
  store ptr %1, ptr %6, align 8, !tbaa !281
  store ptr %2, ptr %7, align 8, !tbaa !97
  %13 = load ptr, ptr %7, align 8, !tbaa !97
  %14 = call i32 @WPACKET_start_sub_packet_len__(ptr noundef %13, i64 noundef 2)
  %15 = icmp ne i32 %14, 0
  br i1 %15, label %18, label %16

16:                                               ; preds = %3
  call void @ERR_new()
  call void @ERR_set_debug(ptr noundef @.str, i32 noundef 2741, ptr noundef @__func__.construct_ca_names)
  %17 = load ptr, ptr %5, align 8, !tbaa !18
  call void (ptr, i32, i32, ptr, ...) @ossl_statem_fatal(ptr noundef %17, i32 noundef 80, i32 noundef 786691, ptr noundef null)
  store i32 0, ptr %4, align 4
  br label %76

18:                                               ; preds = %3
  %19 = load ptr, ptr %6, align 8, !tbaa !281
  %20 = icmp ne ptr %19, null
  br i1 %20, label %21, label %69

21:                                               ; preds = %18
  %22 = load ptr, ptr %5, align 8, !tbaa !18
  %23 = getelementptr inbounds nuw %struct.ssl_connection_st, ptr %22, i32 0, i32 74
  %24 = load i64, ptr %23, align 8, !tbaa !171
  %25 = and i64 %24, 512
  %26 = icmp ne i64 %25, 0
  br i1 %26, label %69, label %27

27:                                               ; preds = %21
  call void @llvm.lifetime.start.p0(i64 4, ptr %8) #9
  store i32 0, ptr %8, align 4, !tbaa !85
  br label %28

28:                                               ; preds = %62, %27
  %29 = load i32, ptr %8, align 4, !tbaa !85
  %30 = load ptr, ptr %6, align 8, !tbaa !281
  %31 = call ptr @ossl_check_const_X509_NAME_sk_type(ptr noundef %30)
  %32 = call i32 @OPENSSL_sk_num(ptr noundef %31)
  %33 = icmp slt i32 %29, %32
  br i1 %33, label %34, label %65

34:                                               ; preds = %28
  call void @llvm.lifetime.start.p0(i64 8, ptr %9) #9
  call void @llvm.lifetime.start.p0(i64 8, ptr %10) #9
  %35 = load ptr, ptr %6, align 8, !tbaa !281
  %36 = call ptr @ossl_check_const_X509_NAME_sk_type(ptr noundef %35)
  %37 = load i32, ptr %8, align 4, !tbaa !85
  %38 = call ptr @OPENSSL_sk_value(ptr noundef %36, i32 noundef %37)
  store ptr %38, ptr %10, align 8, !tbaa !282
  call void @llvm.lifetime.start.p0(i64 4, ptr %11) #9
  %39 = load ptr, ptr %10, align 8, !tbaa !282
  %40 = icmp eq ptr %39, null
  br i1 %40, label %56, label %41

41:                                               ; preds = %34
  %42 = load ptr, ptr %10, align 8, !tbaa !282
  %43 = call i32 @i2d_X509_NAME(ptr noundef %42, ptr noundef null)
  store i32 %43, ptr %11, align 4, !tbaa !85
  %44 = icmp slt i32 %43, 0
  br i1 %44, label %56, label %45

45:                                               ; preds = %41
  %46 = load ptr, ptr %7, align 8, !tbaa !97
  %47 = load i32, ptr %11, align 4, !tbaa !85
  %48 = sext i32 %47 to i64
  %49 = call i32 @WPACKET_sub_allocate_bytes__(ptr noundef %46, i64 noundef %48, ptr noundef %9, i64 noundef 2)
  %50 = icmp ne i32 %49, 0
  br i1 %50, label %51, label %56

51:                                               ; preds = %45
  %52 = load ptr, ptr %10, align 8, !tbaa !282
  %53 = call i32 @i2d_X509_NAME(ptr noundef %52, ptr noundef %9)
  %54 = load i32, ptr %11, align 4, !tbaa !85
  %55 = icmp ne i32 %53, %54
  br i1 %55, label %56, label %58

56:                                               ; preds = %51, %45, %41, %34
  call void @ERR_new()
  call void @ERR_set_debug(ptr noundef @.str, i32 noundef 2758, ptr noundef @__func__.construct_ca_names)
  %57 = load ptr, ptr %5, align 8, !tbaa !18
  call void (ptr, i32, i32, ptr, ...) @ossl_statem_fatal(ptr noundef %57, i32 noundef 80, i32 noundef 786691, ptr noundef null)
  store i32 0, ptr %4, align 4
  store i32 1, ptr %12, align 4
  br label %59

58:                                               ; preds = %51
  store i32 0, ptr %12, align 4
  br label %59

59:                                               ; preds = %58, %56
  call void @llvm.lifetime.end.p0(i64 4, ptr %11) #9
  call void @llvm.lifetime.end.p0(i64 8, ptr %10) #9
  call void @llvm.lifetime.end.p0(i64 8, ptr %9) #9
  %60 = load i32, ptr %12, align 4
  switch i32 %60, label %66 [
    i32 0, label %61
  ]

61:                                               ; preds = %59
  br label %62

62:                                               ; preds = %61
  %63 = load i32, ptr %8, align 4, !tbaa !85
  %64 = add nsw i32 %63, 1
  store i32 %64, ptr %8, align 4, !tbaa !85
  br label %28, !llvm.loop !288

65:                                               ; preds = %28
  store i32 0, ptr %12, align 4
  br label %66

66:                                               ; preds = %65, %59
  call void @llvm.lifetime.end.p0(i64 4, ptr %8) #9
  %67 = load i32, ptr %12, align 4
  switch i32 %67, label %78 [
    i32 0, label %68
    i32 1, label %76
  ]

68:                                               ; preds = %66
  br label %69

69:                                               ; preds = %68, %21, %18
  %70 = load ptr, ptr %7, align 8, !tbaa !97
  %71 = call i32 @WPACKET_close(ptr noundef %70)
  %72 = icmp ne i32 %71, 0
  br i1 %72, label %75, label %73

73:                                               ; preds = %69
  call void @ERR_new()
  call void @ERR_set_debug(ptr noundef @.str, i32 noundef 2765, ptr noundef @__func__.construct_ca_names)
  %74 = load ptr, ptr %5, align 8, !tbaa !18
  call void (ptr, i32, i32, ptr, ...) @ossl_statem_fatal(ptr noundef %74, i32 noundef 80, i32 noundef 786691, ptr noundef null)
  store i32 0, ptr %4, align 4
  br label %76

75:                                               ; preds = %69
  store i32 1, ptr %4, align 4
  br label %76

76:                                               ; preds = %75, %73, %66, %16
  %77 = load i32, ptr %4, align 4
  ret i32 %77

78:                                               ; preds = %66
  unreachable
}