; Function Attrs: nounwind uwtable
define range(i32 0, 2) i32 @construct_ca_names(ptr noundef %0, ptr noundef %1, ptr noundef %2) local_unnamed_addr #0 {
  %4 = alloca ptr, align 8
  %5 = tail call i32 @WPACKET_start_sub_packet_len__(ptr noundef %2, i64 noundef 2) #11
  %.not = icmp eq i32 %5, 0
  br i1 %.not, label %6, label %7

6:                                                ; preds = %3
  tail call void @ERR_new() #11
  tail call void @ERR_set_debug(ptr noundef nonnull @.str, i32 noundef 2741, ptr noundef nonnull @__func__.construct_ca_names) #11
  tail call void (ptr, i32, i32, ptr, ...) @ossl_statem_fatal(ptr noundef %0, i32 noundef 80, i32 noundef 786691, ptr noundef null) #11
  br label %31

7:                                                ; preds = %3
  %.not26 = icmp eq ptr %1, null
  br i1 %.not26, label %.thread, label %8

8:                                                ; preds = %7
  %9 = getelementptr inbounds nuw i8, ptr %0, i64 2480
  %10 = load i64, ptr %9, align 8, !tbaa !153
  %11 = and i64 %10, 512
  %.not27 = icmp eq i64 %11, 0
  br i1 %.not27, label %.preheader, label %.thread

.preheader:                                       ; preds = %8
  %12 = tail call i32 @OPENSSL_sk_num(ptr noundef nonnull %1) #11
  %13 = icmp sgt i32 %12, 0
  br i1 %13, label %.lr.ph, label %.thread

.lr.ph:                                           ; preds = %.preheader, %24
  %.02232 = phi i32 [ %25, %24 ], [ 0, %.preheader ]
  call void @llvm.lifetime.start.p0(i64 8, ptr nonnull %4) #11
  %14 = call ptr @OPENSSL_sk_value(ptr noundef nonnull %1, i32 noundef %.02232) #11
  %15 = icmp eq ptr %14, null
  br i1 %15, label %28, label %16

16:                                               ; preds = %.lr.ph
  %17 = call i32 @i2d_X509_NAME(ptr noundef nonnull %14, ptr noundef null) #11
  %18 = icmp slt i32 %17, 0
  br i1 %18, label %28, label %19

19:                                               ; preds = %16
  %20 = zext nneg i32 %17 to i64
  %21 = call i32 @WPACKET_sub_allocate_bytes__(ptr noundef %2, i64 noundef %20, ptr noundef nonnull %4, i64 noundef 2) #11
  %.not28 = icmp eq i32 %21, 0
  br i1 %.not28, label %28, label %22

22:                                               ; preds = %19
  %23 = call i32 @i2d_X509_NAME(ptr noundef nonnull %14, ptr noundef nonnull %4) #11
  %.not29 = icmp eq i32 %23, %17
  br i1 %.not29, label %24, label %28

24:                                               ; preds = %22
  call void @llvm.lifetime.end.p0(i64 8, ptr nonnull %4) #11
  %25 = add nuw nsw i32 %.02232, 1
  %26 = call i32 @OPENSSL_sk_num(ptr noundef nonnull %1) #11
  %27 = icmp slt i32 %25, %26
  br i1 %27, label %.lr.ph, label %.thread, !llvm.loop !248

28:                                               ; preds = %.lr.ph, %16, %19, %22
  call void @ERR_new() #11
  call void @ERR_set_debug(ptr noundef nonnull @.str, i32 noundef 2758, ptr noundef nonnull @__func__.construct_ca_names) #11
  call void (ptr, i32, i32, ptr, ...) @ossl_statem_fatal(ptr noundef %0, i32 noundef 80, i32 noundef 786691, ptr noundef null) #11
  call void @llvm.lifetime.end.p0(i64 8, ptr nonnull %4) #11
  br label %31

.thread:                                          ; preds = %24, %.preheader, %8, %7
  %29 = call i32 @WPACKET_close(ptr noundef %2) #11
  %.not30 = icmp eq i32 %29, 0
  br i1 %.not30, label %30, label %31

30:                                               ; preds = %.thread
  call void @ERR_new() #11
  call void @ERR_set_debug(ptr noundef nonnull @.str, i32 noundef 2765, ptr noundef nonnull @__func__.construct_ca_names) #11
  call void (ptr, i32, i32, ptr, ...) @ossl_statem_fatal(ptr noundef %0, i32 noundef 80, i32 noundef 786691, ptr noundef null) #11
  br label %31

31:                                               ; preds = %28, %.thread, %30, %6
  %.020 = phi i32 [ 0, %30 ], [ 0, %28 ], [ 0, %6 ], [ 1, %.thread ]
  ret i32 %.020
}